; Function Attrs: mustprogress uwtable
define void @_ZN6marisa8grimoire4trie4Tail4swapERS2_(ptr noundef nonnull align 8 dereferenceable(256) %0, ptr noundef nonnull align 8 dereferenceable(256) %1) local_unnamed_addr #4 align 2 {
  %3 = load ptr, ptr %0, align 8
  %4 = load ptr, ptr %1, align 8
  store ptr %4, ptr %0, align 8
  store ptr %3, ptr %1, align 8
  %5 = getelementptr inbounds i8, ptr %0, i64 8
  %6 = getelementptr inbounds i8, ptr %1, i64 8
  %7 = load ptr, ptr %5, align 8
  %8 = load ptr, ptr %6, align 8
  store ptr %8, ptr %5, align 8
  store ptr %7, ptr %6, align 8
  %9 = getelementptr inbounds i8, ptr %0, i64 16
  %10 = getelementptr inbounds i8, ptr %1, i64 16
  %11 = load ptr, ptr %9, align 8
  %12 = load ptr, ptr %10, align 8
  store ptr %12, ptr %9, align 8
  store ptr %11, ptr %10, align 8
  %13 = getelementptr inbounds i8, ptr %0, i64 24
  %14 = getelementptr inbounds i8, ptr %1, i64 24
  %15 = load i64, ptr %13, align 8
  %16 = load i64, ptr %14, align 8
  store i64 %16, ptr %13, align 8
  store i64 %15, ptr %14, align 8
  %17 = getelementptr inbounds i8, ptr %0, i64 32
  %18 = getelementptr inbounds i8, ptr %1, i64 32
  %19 = load i64, ptr %17, align 8
  %20 = load i64, ptr %18, align 8
  store i64 %20, ptr %17, align 8
  store i64 %19, ptr %18, align 8
  %21 = getelementptr inbounds i8, ptr %0, i64 40
  %22 = getelementptr inbounds i8, ptr %1, i64 40
  %23 = load i8, ptr %21, align 8
  %24 = and i8 %23, 1
  %25 = load i8, ptr %22, align 8
  %26 = and i8 %25, 1
  store i8 %26, ptr %21, align 8
  store i8 %24, ptr %22, align 8
  %27 = getelementptr inbounds i8, ptr %0, i64 48
  %28 = getelementptr inbounds i8, ptr %1, i64 48
  tail call void @_ZN6marisa8grimoire6vector9BitVector4swapERS2_(ptr noundef nonnull align 8 dereferenceable(208) %27, ptr noundef nonnull align 8 dereferenceable(208) %28)
  ret void
}